ccopy_reg
_reconstructor
p0
(cbson.son
SON
p1
c__builtin__
dict
p2
(dp3
Vstatus
p4
Vfinal
p5
sVupdated
p6
V2012-04-24 00:00:00
p7
sVdescription
p8
VOpenSSL is a toolkit that implements the Secure Sockets Layer (SSL v2/v3)\u000aand Transport Layer Security (TLS v1) protocols, as well as a\u000afull-strength, general purpose cryptography library.\u000a\u000aMultiple numeric conversion errors, leading to a buffer overflow, were\u000afound in the way OpenSSL parsed ASN.1 (Abstract Syntax Notation One) data\u000afrom BIO (OpenSSL's I/O abstraction) inputs. Specially-crafted DER\u000a(Distinguished Encoding Rules) encoded data read from a file or other BIO\u000ainput could cause an application using the OpenSSL library to crash or,\u000apotentially, execute arbitrary code. (CVE-2012-2110)\u000a\u000aAll OpenSSL users should upgrade to these updated packages, which contain\u000aa backported patch to resolve this issue. For the update to take effect,\u000aall services linked to the OpenSSL library must be restarted, or the system\u000arebooted.\u000a
p9
sVissued
p10
V2012-04-24 00:00:00
p11
sVpushcount
p12
I1
sVreferences
p13
(lp14
g0
(g1
g2
(dp15
Vhref
p16
Vhttps://rhn.redhat.com/errata/RHSA-2012-0518.html
p17
sVtype
p18
Vself
p19
sVid
p20
NsVtitle
p21
VRHSA-2012:0518
p22
stp23
Rp24
(dp25
S'_SON__keys'
p26
(lp27
g16
ag18
ag20
ag21
asbag0
(g1
g2
(dp28
Vhref
p29
Vhttps://bugzilla.redhat.com/bugzilla/show_bug.cgi?id=814185
p30
sVtype
p31
Vbugzilla
p32
sVid
p33
V814185
p34
sVtitle
p35
VCVE-2012-2110 openssl: asn1_d2i_read_bio integer errors leading to buffer overflow
p36
stp37
Rp38
(dp39
g26
(lp40
g29
ag31
ag33
ag35
asbag0
(g1
g2
(dp41
Vhref
p42
Vhttps://www.redhat.com/security/data/cve/CVE-2012-2110.html
p43
sVtype
p44
Vcve
p45
sVid
p46
VCVE-2012-2110
p47
sVtitle
p48
VCVE-2012-2110
p49
stp50
Rp51
(dp52
g26
(lp53
g42
ag44
ag46
ag48
asbag0
(g1
g2
(dp54
Vhref
p55
Vhttps://access.redhat.com/security/updates/classification/#important
p56
sVtype
p57
Vother
p58
sVid
p59
NsVtitle
p60
Nstp61
Rp62
(dp63
g26
(lp64
g55
ag57
ag59
ag60
asbag0
(g1
g2
(dp65
Vhref
p66
Vhttp://www.openssl.org/news/secadv_20120419.txt
p67
sVtype
p68
Vother
p69
sVid
p70
NsVtitle
p71
Nstp72
Rp73
(dp74
g26
(lp75
g66
ag68
ag70
ag71
asbasV_content_type_id
p76
Verratum
p77
sVid
p78
VRHSA-2012:0518
p79
sVfrom_str
p80
Vsecurity@redhat.com
p81
sV_storage_path
p82
NsV_id
p83
V4ee92472-54e2-4e0b-80f3-eca11f944d81
p84
sVseverity
p85
VImportant
p86
sVtitle
p87
VImportant: openssl security update
p88
sV_ns
p89
Vunits_erratum
p90
sVrights
p91
VCopyright 2012 Red Hat Inc
p92
sVsolution
p93
VBefore applying this update, make sure all previously-released errata\u000arelevant to your system have been applied.\u000a\u000aThis update is available via the Red Hat Network. Details on how to\u000ause the Red Hat Network to apply this update are available at\u000ahttps://access.redhat.com/knowledge/articles/11258\u000a
p94
sVsummary
p95
VUpdated openssl, openssl097a, and openssl098e packages that fix one\u000asecurity issue are now available for Red Hat Enterprise Linux 5 and 6.\u000a\u000aThe Red Hat Security Response Team has rated this update as having\u000aimportant security impact. A Common Vulnerability Scoring System (CVSS)\u000abase score, which gives a detailed severity rating, is available from the\u000aCVE link in the References section.\u000a
p96
sVversion
p97
V1
p98
sVrelease
p99
V
p100
sVreboot_suggested
p101
I00
sVtype
p102
Vsecurity
p103
sVpkglist
p104
(lp105
g0
(g1
g2
(dp106
Vpackages
p107
(lp108
g0
(g1
g2
(dp109
Vsrc
p110
Vopenssl-0.9.8e-22.el5_8.3.src.rpm
p111
sVname
p112
Vopenssl-perl
p113
sVsum
p114
(lp115
Vmd5
p116
aV7f912e0fd0c418f04401df346368d28d
p117
asVfilename
p118
Vopenssl-perl-0.9.8e-22.el5_8.3.x86_64.rpm
p119
sVepoch
p120
V0
p121
sVversion
p122
V0.9.8e
p123
sVrelease
p124
V22.el5_8.3
p125
sVarch
p126
Vx86_64
p127
stp128
Rp129
(dp130
g26
(lp131
g110
ag112
ag114
ag118
ag120
ag122
ag124
ag126
asbag0
(g1
g2
(dp132
Vsrc
p133
Vopenssl-0.9.8e-22.el5_8.3.src.rpm
p134
sVname
p135
Vopenssl-devel
p136
sVsum
p137
(lp138
Vmd5
p139
aVc93e730c2e6d52c9cabf63109b22318a
p140
asVfilename
p141
Vopenssl-devel-0.9.8e-22.el5_8.3.i386.rpm
p142
sVepoch
p143
V0
p144
sVversion
p145
V0.9.8e
p146
sVrelease
p147
V22.el5_8.3
p148
sVarch
p149
Vi386
p150
stp151
Rp152
(dp153
g26
(lp154
g133
ag135
ag137
ag141
ag143
ag145
ag147
ag149
asbag0
(g1
g2
(dp155
Vsrc
p156
Vopenssl-0.9.8e-22.el5_8.3.src.rpm
p157
sVname
p158
Vopenssl
p159
sVsum
p160
(lp161
Vmd5
p162
aV71c75436d3198610db3afba5fce49949
p163
asVfilename
p164
Vopenssl-0.9.8e-22.el5_8.3.i686.rpm
p165
sVepoch
p166
V0
p167
sVversion
p168
V0.9.8e
p169
sVrelease
p170
V22.el5_8.3
p171
sVarch
p172
Vi686
p173
stp174
Rp175
(dp176
g26
(lp177
g156
ag158
ag160
ag164
ag166
ag168
ag170
ag172
asbag0
(g1
g2
(dp178
Vsrc
p179
Vopenssl-0.9.8e-22.el5_8.3.src.rpm
p180
sVname
p181
Vopenssl
p182
sVsum
p183
(lp184
Vmd5
p185
aV5c81ef2d14257998df486150effa22e1
p186
asVfilename
p187
Vopenssl-0.9.8e-22.el5_8.3.x86_64.rpm
p188
sVepoch
p189
V0
p190
sVversion
p191
V0.9.8e
p192
sVrelease
p193
V22.el5_8.3
p194
sVarch
p195
Vx86_64
p196
stp197
Rp198
(dp199
g26
(lp200
g179
ag181
ag183
ag187
ag189
ag191
ag193
ag195
asbag0
(g1
g2
(dp201
Vsrc
p202
Vopenssl-0.9.8e-22.el5_8.3.src.rpm
p203
sVname
p204
Vopenssl-devel
p205
sVsum
p206
(lp207
Vmd5
p208
aV1ccd09d080c7f87e76806f5ab739e318
p209
asVfilename
p210
Vopenssl-devel-0.9.8e-22.el5_8.3.x86_64.rpm
p211
sVepoch
p212
V0
p213
sVversion
p214
V0.9.8e
p215
sVrelease
p216
V22.el5_8.3
p217
sVarch
p218
Vx86_64
p219
stp220
Rp221
(dp222
g26
(lp223
g202
ag204
ag206
ag210
ag212
ag214
ag216
ag218
asbag0
(g1
g2
(dp224
Vsrc
p225
Vopenssl097a-0.9.7a-11.el5_8.2.src.rpm
p226
sVname
p227
Vopenssl097a
p228
sVsum
p229
(lp230
Vmd5
p231
aV2a4b1ff39fa4e996be0a8fa81a214227
p232
asVfilename
p233
Vopenssl097a-0.9.7a-11.el5_8.2.x86_64.rpm
p234
sVepoch
p235
V0
p236
sVversion
p237
V0.9.7a
p238
sVrelease
p239
V11.el5_8.2
p240
sVarch
p241
Vx86_64
p242
stp243
Rp244
(dp245
g26
(lp246
g225
ag227
ag229
ag233
ag235
ag237
ag239
ag241
asbag0
(g1
g2
(dp247
Vsrc
p248
Vopenssl097a-0.9.7a-11.el5_8.2.src.rpm
p249
sVname
p250
Vopenssl097a
p251
sVsum
p252
(lp253
Vmd5
p254
aV7a501eeb68b2ef18e4b2f4e5ca47e430
p255
asVfilename
p256
Vopenssl097a-0.9.7a-11.el5_8.2.i386.rpm
p257
sVepoch
p258
V0
p259
sVversion
p260
V0.9.7a
p261
sVrelease
p262
V11.el5_8.2
p263
sVarch
p264
Vi386
p265
stp266
Rp267
(dp268
g26
(lp269
g248
ag250
ag252
ag256
ag258
ag260
ag262
ag264
asbasVname
p270
VRed Hat Enterprise Linux (v. 5 for 64-bit x86_64)
p271
sVshort
p272
Vrhel-x86_64-server-5
p273
stp274
Rp275
(dp276
g26
(lp277
g107
ag270
ag272
asbag0
(g1
g2
(dp278
Vpackages
p279
(lp280
g0
(g1
g2
(dp281
Vsrc
p282
Vopenssl-1.0.0-20.el6_2.4.src.rpm
p283
sVname
p284
Vopenssl
p285
sVsum
p286
(lp287
Vsha256
p288
aV06b929684f3c549d7febd326b8d804616c592d88f9ee798e65516984dd46ba0d
p289
asVfilename
p290
Vopenssl-1.0.0-20.el6_2.4.i686.rpm
p291
sVepoch
p292
V0
p293
sVversion
p294
V1.0.0
p295
sVrelease
p296
V20.el6_2.4
p297
sVarch
p298
Vi686
p299
stp300
Rp301
(dp302
g26
(lp303
g282
ag284
ag286
ag290
ag292
ag294
ag296
ag298
asbag0
(g1
g2
(dp304
Vsrc
p305
Vopenssl-1.0.0-20.el6_2.4.src.rpm
p306
sVname
p307
Vopenssl-devel
p308
sVsum
p309
(lp310
Vsha256
p311
aVa1639ebb8e84ddf18f622eb4760fdcf189cedce065a79161dc634bed9595d8c0
p312
asVfilename
p313
Vopenssl-devel-1.0.0-20.el6_2.4.i686.rpm
p314
sVepoch
p315
V0
p316
sVversion
p317
V1.0.0
p318
sVrelease
p319
V20.el6_2.4
p320
sVarch
p321
Vi686
p322
stp323
Rp324
(dp325
g26
(lp326
g305
ag307
ag309
ag313
ag315
ag317
ag319
ag321
asbag0
(g1
g2
(dp327
Vsrc
p328
Vopenssl-1.0.0-20.el6_2.4.src.rpm
p329
sVname
p330
Vopenssl
p331
sVsum
p332
(lp333
Vsha256
p334
aV9086fb6df686c41165cbea617de3516c5977bf6ad2081e7b6a9545bc1e70eb29
p335
asVfilename
p336
Vopenssl-1.0.0-20.el6_2.4.x86_64.rpm
p337
sVepoch
p338
V0
p339
sVversion
p340
V1.0.0
p341
sVrelease
p342
V20.el6_2.4
p343
sVarch
p344
Vx86_64
p345
stp346
Rp347
(dp348
g26
(lp349
g328
ag330
ag332
ag336
ag338
ag340
ag342
ag344
asbag0
(g1
g2
(dp350
Vsrc
p351
Vopenssl-1.0.0-20.el6_2.4.src.rpm
p352
sVname
p353
Vopenssl-devel
p354
sVsum
p355
(lp356
Vsha256
p357
aV2f08fc48c013e3bcafc04aa60e5c05dba9eef813add217590275b06fe1a15246
p358
asVfilename
p359
Vopenssl-devel-1.0.0-20.el6_2.4.x86_64.rpm
p360
sVepoch
p361
V0
p362
sVversion
p363
V1.0.0
p364
sVrelease
p365
V20.el6_2.4
p366
sVarch
p367
Vx86_64
p368
stp369
Rp370
(dp371
g26
(lp372
g351
ag353
ag355
ag359
ag361
ag363
ag365
ag367
asbag0
(g1
g2
(dp373
Vsrc
p374
Vopenssl098e-0.9.8e-17.el6_2.2.src.rpm
p375
sVname
p376
Vopenssl098e
p377
sVsum
p378
(lp379
Vsha256
p380
aV092714814a7081cdea004fdafaeab66c4f4cd18bd9b4d4a4b619e80ab920faf0
p381
asVfilename
p382
Vopenssl098e-0.9.8e-17.el6_2.2.i686.rpm
p383
sVepoch
p384
V0
p385
sVversion
p386
V0.9.8e
p387
sVrelease
p388
V17.el6_2.2
p389
sVarch
p390
Vi686
p391
stp392
Rp393
(dp394
g26
(lp395
g374
ag376
ag378
ag382
ag384
ag386
ag388
ag390
asbag0
(g1
g2
(dp396
Vsrc
p397
Vopenssl098e-0.9.8e-17.el6_2.2.src.rpm
p398
sVname
p399
Vopenssl098e
p400
sVsum
p401
(lp402
Vsha256
p403
aV5970ecb37cf239aadfe8c837c26e54b8f08766d606ea1cc43bce5dcebd1da712
p404
asVfilename
p405
Vopenssl098e-0.9.8e-17.el6_2.2.x86_64.rpm
p406
sVepoch
p407
V0
p408
sVversion
p409
V0.9.8e
p410
sVrelease
p411
V17.el6_2.2
p412
sVarch
p413
Vx86_64
p414
stp415
Rp416
(dp417
g26
(lp418
g397
ag399
ag401
ag405
ag407
ag409
ag411
ag413
asbasVname
p419
VRed Hat Enterprise Linux Server (v. 6 for 64-bit x86_64)
p420
sVshort
p421
Vrhel-x86_64-server-6
p422
stp423
Rp424
(dp425
g26
(lp426
g279
ag419
ag421
asbastp427
Rp428
(dp429
g26
(lp430
g10
ag13
ag76
ag78
ag85
ag87
ag89
ag97
ag101
ag102
ag104
ag4
ag6
ag8
ag12
ag80
ag82
ag91
ag93
ag95
ag99
ag83
asb.